target datalayout = "e-m:e-p270:32:32-p271:32:32-p272:64:64-i64:64-i128:128-f80:128-n8:16:32:64-S128"
target triple = "x86_64-pc-linux-gnu"

%struct.rb_transcoder = type { ptr, ptr, i32, ptr, i32, ptr, i32, i32, i32, i32, i32, i32, i64, ptr, ptr, ptr, ptr, ptr, ptr, ptr, ptr, ptr, ptr }
%struct.transcoder_entry_t = type { ptr, ptr, ptr, ptr }

@rb_eArgError = external global i64, align 8
@.str = private unnamed_addr constant [53 x i8] c"transcoder from %s to %s has been already registered\00", align 1

; Function Attrs: nounwind sspstrong uwtable
define dso_local void @rb_register_transcoder(ptr noundef %0) #0 {
  %2 = alloca ptr, align 8
  %3 = alloca ptr, align 8
  %4 = alloca ptr, align 8
  %5 = alloca ptr, align 8
  store ptr %0, ptr %2, align 8, !tbaa !14
  call void @llvm.lifetime.start.p0(i64 8, ptr %3) #25
  %6 = load ptr, ptr %2, align 8, !tbaa !14
  %7 = getelementptr inbounds nuw %struct.rb_transcoder, ptr %6, i32 0, i32 0
  %8 = load ptr, ptr %7, align 8, !tbaa !16
  store ptr %8, ptr %3, align 8, !tbaa !21
  call void @llvm.lifetime.start.p0(i64 8, ptr %4) #25
  %9 = load ptr, ptr %2, align 8, !tbaa !14
  %10 = getelementptr inbounds nuw %struct.rb_transcoder, ptr %9, i32 0, i32 1
  %11 = load ptr, ptr %10, align 8, !tbaa !22
  store ptr %11, ptr %4, align 8, !tbaa !21
  call void @llvm.lifetime.start.p0(i64 8, ptr %5) #25
  %12 = load ptr, ptr %3, align 8, !tbaa !21
  %13 = load ptr, ptr %4, align 8, !tbaa !21
  %14 = call ptr @make_transcoder_entry(ptr noundef %12, ptr noundef %13)
  store ptr %14, ptr %5, align 8, !tbaa !23
  %15 = load ptr, ptr %5, align 8, !tbaa !23
  %16 = getelementptr inbounds nuw %struct.transcoder_entry_t, ptr %15, i32 0, i32 3
  %17 = load ptr, ptr %16, align 8, !tbaa !24
  %18 = icmp ne ptr %17, null
  br i1 %18, label %19, label %23

19:                                               ; preds = %1
  %20 = load i64, ptr @rb_eArgError, align 8, !tbaa !12
  %21 = load ptr, ptr %3, align 8, !tbaa !21
  %22 = load ptr, ptr %4, align 8, !tbaa !21
  call void (i64, ptr, ...) @rb_raise(i64 noundef %20, ptr noundef @.str, ptr noundef %21, ptr noundef %22) #26
  unreachable

23:                                               ; preds = %1
  %24 = load ptr, ptr %2, align 8, !tbaa !14
  %25 = load ptr, ptr %5, align 8, !tbaa !23
  %26 = getelementptr inbounds nuw %struct.transcoder_entry_t, ptr %25, i32 0, i32 3
  store ptr %24, ptr %26, align 8, !tbaa !24
  call void @llvm.lifetime.end.p0(i64 8, ptr %5) #25
  call void @llvm.lifetime.end.p0(i64 8, ptr %4) #25
  call void @llvm.lifetime.end.p0(i64 8, ptr %3) #25
  ret void
}