; Function Attrs: nounwind sspstrong uwtable
define dso_local void @rb_register_transcoder(ptr noundef %0) local_unnamed_addr #0 {
  %2 = load ptr, ptr %0, align 8, !tbaa !12
  %3 = getelementptr inbounds nuw i8, ptr %0, i64 8
  %4 = load ptr, ptr %3, align 8, !tbaa !18
  %5 = tail call fastcc ptr @make_transcoder_entry(ptr noundef %2, ptr noundef %4)
  %6 = getelementptr inbounds nuw i8, ptr %5, i64 24
  %7 = load ptr, ptr %6, align 8, !tbaa !19
  %.not = icmp eq ptr %7, null
  br i1 %.not, label %10, label %8

8:                                                ; preds = %1
  %9 = load i64, ptr @rb_eArgError, align 8, !tbaa !22
  tail call void (i64, ptr, ...) @rb_raise(i64 noundef %9, ptr noundef nonnull @.str, ptr noundef %2, ptr noundef %4) #23
  unreachable

10:                                               ; preds = %1
  store ptr %0, ptr %6, align 8, !tbaa !19
  ret void
}